(dp0
S'train'
p1
(dp2
S'acc'
p3
(lp4
F61.0655737704918
aF77.45901639344262
aF88.11475409836065
aF83.19672131147541
aF80.32786885245902
aF87.29508196721312
aF90.57377049180327
aF87.29508196721312
aF93.85245901639344
aF90.57377049180327
aF90.1639344262295
aF90.1639344262295
aF89.75409836065573
aF97.1311475409836
aF91.39344262295081
aF94.26229508196721
aF93.85245901639344
aF92.21311475409836
aF91.39344262295081
aF91.39344262295081
aF90.98360655737704
aF90.98360655737704
aF96.31147540983606
aF94.26229508196721
aF95.08196721311475
aF92.21311475409836
aF90.57377049180327
aF97.1311475409836
aF92.21311475409836
aF93.44262295081967
aF93.85245901639344
aF91.39344262295081
aF95.08196721311475
aF93.0327868852459
aF94.67213114754098
aF94.26229508196721
aF94.26229508196721
aF93.85245901639344
aF93.85245901639344
aF93.85245901639344
asS'loss'
p5
(lp6
F0.6561721690365525
aF0.5447074441147632
aF0.3936485675026159
aF0.41188758758247873
aF0.41706973998273006
aF0.31204158311984576
aF0.30162102350446046
aF0.29173126548040107
aF0.20085869851659555
aF0.26856487891713127
aF0.23485144142244682
aF0.2533095449697776
aF0.23984200837182218
aF0.14037925322524836
aF0.2129803734724639
aF0.16174718591033435
aF0.15416001418574912
aF0.2090915170360784
aF0.1983225619206663
aF0.22133009062438716
aF0.1933587274101914
aF0.22638242801681893
aF0.13964155633918574
aF0.1688126186366941
aF0.1395599666188975
aF0.1793346712823774
aF0.19737432701665847
aF0.11094297468662262
aF0.19492870935651122
aF0.19025959245494153
aF0.14986484607712167
aF0.19817574859642592
aF0.14176244081043807
aF0.18385784376840122
aF0.17010729332439234
aF0.14374569082846406
aF0.1724703043210702
aF0.1647709427309818
aF0.1843217301075576
aF0.16751926013680754
assS'val'
p7
(dp8
g3
(lp9
F72.54901960784314
aF90.19607843137256
aF88.23529411764706
aF88.88888888888889
aF90.84967320261438
aF90.84967320261438
aF92.15686274509804
aF90.84967320261438
aF91.50326797385621
aF90.84967320261438
aF90.19607843137256
aF90.19607843137256
aF90.19607843137256
aF90.84967320261438
aF94.11764705882354
aF90.84967320261438
aF89.54248366013071
aF91.50326797385621
aF93.4640522875817
aF90.19607843137256
aF90.84967320261438
aF91.50326797385621
aF91.50326797385621
aF90.19607843137256
aF89.54248366013071
aF90.84967320261438
aF90.84967320261438
aF91.50326797385621
aF88.23529411764706
aF90.84967320261438
aF91.50326797385621
aF90.84967320261438
aF94.11764705882354
aF93.4640522875817
aF93.4640522875817
aF90.84967320261438
aF91.50326797385621
aF90.84967320261438
aF90.19607843137256
aF91.50326797385621
asg5
(lp10
F0.5539419070268289
aF0.4193128011165521
aF0.3508132356099593
aF0.32649524930195933
aF0.2589734265437493
aF0.24689745329893553
aF0.2259844950376413
aF0.21683645554077932
aF0.20201209416756263
aF0.21223880732670808
aF0.2071888137322206
aF0.20466618430920136
aF0.21903288326202294
aF0.19306082526842752
aF0.16845807815209413
aF0.18825699694645712
aF0.21482877777172968
aF0.18544755646815667
aF0.17148862282435098
aF0.21165709713330635
aF0.18420894482196906
aF0.1753743990109517
aF0.1739228367805481
aF0.202000169417797
aF0.21688124652092272
aF0.2309780220190684
aF0.209097167238211
aF0.17326110907090017
aF0.23855427442452845
aF0.17422717160139328
aF0.17981714736192655
aF0.1865031253068875
aF0.1755886998696205
aF0.1663979578476686
aF0.16999287521227813
aF0.1835722552660184
aF0.1855397050579389
aF0.24166927352929726
aF0.20631405367301062
aF0.17403619831953293
ass.